target datalayout = "e-m:e-p270:32:32-p271:32:32-p272:64:64-i64:64-i128:128-f80:128-n8:16:32:64-S128"
target triple = "x86_64-pc-linux-gnu"

%struct._zend_refcounted_h = type { i32, %union.anon.4 }
%union.anon.4 = type { i32 }
%struct._zend_string = type { %struct._zend_refcounted_h, i64, i64, [1 x i8] }
%struct.smart_str = type { ptr, i64 }

@.str.166 = private unnamed_addr constant [8 x i8] c"public \00", align 1
@.str.167 = private unnamed_addr constant [11 x i8] c"protected \00", align 1
@.str.168 = private unnamed_addr constant [9 x i8] c"private \00", align 1

; Function Attrs: nounwind uwtable
define internal void @zend_ast_export_visibility(ptr noundef %0, i32 noundef %1) #0 {
  %3 = alloca ptr, align 8
  %4 = alloca i64, align 8
  %5 = alloca i8, align 1
  %6 = alloca ptr, align 8
  %7 = alloca i64, align 8
  %8 = alloca i8, align 1
  %9 = alloca ptr, align 8
  %10 = alloca i64, align 8
  %11 = alloca i8, align 1
  %12 = alloca ptr, align 8
  %13 = alloca ptr, align 8
  %14 = alloca i64, align 8
  %15 = alloca i8, align 1
  %16 = alloca i64, align 8
  %17 = alloca ptr, align 8
  %18 = alloca ptr, align 8
  %19 = alloca i64, align 8
  %20 = alloca i8, align 1
  %21 = alloca i64, align 8
  %22 = alloca ptr, align 8
  %23 = alloca ptr, align 8
  %24 = alloca i64, align 8
  %25 = alloca i8, align 1
  %26 = alloca i64, align 8
  %27 = alloca ptr, align 8
  %28 = alloca ptr, align 8
  %29 = alloca ptr, align 8
  %30 = alloca ptr, align 8
  %31 = alloca ptr, align 8
  %32 = alloca ptr, align 8
  %33 = alloca ptr, align 8
  %34 = alloca i32, align 4
  store ptr %0, ptr %33, align 8
  store i32 %1, ptr %34, align 4
  %35 = load i32, ptr %34, align 4
  %36 = and i32 %35, 1
  %37 = icmp ne i32 %36, 0
  br i1 %37, label %38, label %93

38:                                               ; preds = %2
  %39 = load ptr, ptr %33, align 8
  store ptr %39, ptr %27, align 8
  store ptr @.str.166, ptr %28, align 8
  %40 = load ptr, ptr %27, align 8
  %41 = load ptr, ptr %28, align 8
  %42 = load ptr, ptr %28, align 8
  %43 = call i64 @strlen(ptr noundef %42) #14
  store ptr %40, ptr %22, align 8
  store ptr %41, ptr %23, align 8
  store i64 %43, ptr %24, align 8
  store i8 0, ptr %25, align 1
  %44 = load ptr, ptr %22, align 8
  %45 = load i64, ptr %24, align 8
  %46 = load i8, ptr %25, align 1
  %47 = trunc i8 %46 to i1
  store ptr %44, ptr %3, align 8
  store i64 %45, ptr %4, align 8
  %48 = zext i1 %47 to i8
  store i8 %48, ptr %5, align 1
  %49 = load ptr, ptr %3, align 8
  %50 = load ptr, ptr %49, align 8
  %51 = icmp ne ptr %50, null
  %52 = xor i1 %51, true
  br i1 %52, label %53, label %54

53:                                               ; preds = %38
  br label %67

54:                                               ; preds = %38
  %55 = load ptr, ptr %3, align 8
  %56 = load ptr, ptr %55, align 8
  %57 = getelementptr inbounds %struct._zend_string, ptr %56, i32 0, i32 2
  %58 = load i64, ptr %57, align 8
  %59 = load i64, ptr %4, align 8
  %60 = add i64 %59, %58
  store i64 %60, ptr %4, align 8
  %61 = load i64, ptr %4, align 8
  %62 = load ptr, ptr %3, align 8
  %63 = getelementptr inbounds %struct.smart_str, ptr %62, i32 0, i32 1
  %64 = load i64, ptr %63, align 8
  %65 = icmp uge i64 %61, %64
  br i1 %65, label %66, label %77

66:                                               ; preds = %54
  br label %67

67:                                               ; preds = %66, %53
  %68 = load i8, ptr %5, align 1
  %69 = trunc i8 %68 to i1
  br i1 %69, label %70, label %73

70:                                               ; preds = %67
  %71 = load ptr, ptr %3, align 8
  %72 = load i64, ptr %4, align 8
  call void @smart_str_realloc(ptr noundef %71, i64 noundef %72) #10
  br label %76

73:                                               ; preds = %67
  %74 = load ptr, ptr %3, align 8
  %75 = load i64, ptr %4, align 8
  call void @smart_str_erealloc(ptr noundef %74, i64 noundef %75) #10
  br label %76

76:                                               ; preds = %73, %70
  br label %77

77:                                               ; preds = %76, %54
  %78 = load i64, ptr %4, align 8
  store i64 %78, ptr %26, align 8
  %79 = load ptr, ptr %22, align 8
  %80 = load ptr, ptr %79, align 8
  %81 = getelementptr inbounds %struct._zend_string, ptr %80, i32 0, i32 3
  %82 = load ptr, ptr %22, align 8
  %83 = load ptr, ptr %82, align 8
  %84 = getelementptr inbounds %struct._zend_string, ptr %83, i32 0, i32 2
  %85 = load i64, ptr %84, align 8
  %86 = getelementptr inbounds i8, ptr %81, i64 %85
  %87 = load ptr, ptr %23, align 8
  %88 = load i64, ptr %24, align 8
  call void @llvm.memcpy.p0.p0.i64(ptr align 1 %86, ptr align 1 %87, i64 %88, i1 false)
  %89 = load i64, ptr %26, align 8
  %90 = load ptr, ptr %22, align 8
  %91 = load ptr, ptr %90, align 8
  %92 = getelementptr inbounds %struct._zend_string, ptr %91, i32 0, i32 2
  store i64 %89, ptr %92, align 8
  br label %213

93:                                               ; preds = %2
  %94 = load i32, ptr %34, align 4
  %95 = and i32 %94, 2
  %96 = icmp ne i32 %95, 0
  br i1 %96, label %97, label %152

97:                                               ; preds = %93
  %98 = load ptr, ptr %33, align 8
  store ptr %98, ptr %29, align 8
  store ptr @.str.167, ptr %30, align 8
  %99 = load ptr, ptr %29, align 8
  %100 = load ptr, ptr %30, align 8
  %101 = load ptr, ptr %30, align 8
  %102 = call i64 @strlen(ptr noundef %101) #14
  store ptr %99, ptr %17, align 8
  store ptr %100, ptr %18, align 8
  store i64 %102, ptr %19, align 8
  store i8 0, ptr %20, align 1
  %103 = load ptr, ptr %17, align 8
  %104 = load i64, ptr %19, align 8
  %105 = load i8, ptr %20, align 1
  %106 = trunc i8 %105 to i1
  store ptr %103, ptr %6, align 8
  store i64 %104, ptr %7, align 8
  %107 = zext i1 %106 to i8
  store i8 %107, ptr %8, align 1
  %108 = load ptr, ptr %6, align 8
  %109 = load ptr, ptr %108, align 8
  %110 = icmp ne ptr %109, null
  %111 = xor i1 %110, true
  br i1 %111, label %112, label %113

112:                                              ; preds = %97
  br label %126

113:                                              ; preds = %97
  %114 = load ptr, ptr %6, align 8
  %115 = load ptr, ptr %114, align 8
  %116 = getelementptr inbounds %struct._zend_string, ptr %115, i32 0, i32 2
  %117 = load i64, ptr %116, align 8
  %118 = load i64, ptr %7, align 8
  %119 = add i64 %118, %117
  store i64 %119, ptr %7, align 8
  %120 = load i64, ptr %7, align 8
  %121 = load ptr, ptr %6, align 8
  %122 = getelementptr inbounds %struct.smart_str, ptr %121, i32 0, i32 1
  %123 = load i64, ptr %122, align 8
  %124 = icmp uge i64 %120, %123
  br i1 %124, label %125, label %136

125:                                              ; preds = %113
  br label %126

126:                                              ; preds = %125, %112
  %127 = load i8, ptr %8, align 1
  %128 = trunc i8 %127 to i1
  br i1 %128, label %129, label %132

129:                                              ; preds = %126
  %130 = load ptr, ptr %6, align 8
  %131 = load i64, ptr %7, align 8
  call void @smart_str_realloc(ptr noundef %130, i64 noundef %131) #10
  br label %135

132:                                              ; preds = %126
  %133 = load ptr, ptr %6, align 8
  %134 = load i64, ptr %7, align 8
  call void @smart_str_erealloc(ptr noundef %133, i64 noundef %134) #10
  br label %135

135:                                              ; preds = %132, %129
  br label %136

136:                                              ; preds = %135, %113
  %137 = load i64, ptr %7, align 8
  store i64 %137, ptr %21, align 8
  %138 = load ptr, ptr %17, align 8
  %139 = load ptr, ptr %138, align 8
  %140 = getelementptr inbounds %struct._zend_string, ptr %139, i32 0, i32 3
  %141 = load ptr, ptr %17, align 8
  %142 = load ptr, ptr %141, align 8
  %143 = getelementptr inbounds %struct._zend_string, ptr %142, i32 0, i32 2
  %144 = load i64, ptr %143, align 8
  %145 = getelementptr inbounds i8, ptr %140, i64 %144
  %146 = load ptr, ptr %18, align 8
  %147 = load i64, ptr %19, align 8
  call void @llvm.memcpy.p0.p0.i64(ptr align 1 %145, ptr align 1 %146, i64 %147, i1 false)
  %148 = load i64, ptr %21, align 8
  %149 = load ptr, ptr %17, align 8
  %150 = load ptr, ptr %149, align 8
  %151 = getelementptr inbounds %struct._zend_string, ptr %150, i32 0, i32 2
  store i64 %148, ptr %151, align 8
  br label %212

152:                                              ; preds = %93
  %153 = load i32, ptr %34, align 4
  %154 = and i32 %153, 4
  %155 = icmp ne i32 %154, 0
  br i1 %155, label %156, label %211

156:                                              ; preds = %152
  %157 = load ptr, ptr %33, align 8
  store ptr %157, ptr %31, align 8
  store ptr @.str.168, ptr %32, align 8
  %158 = load ptr, ptr %31, align 8
  %159 = load ptr, ptr %32, align 8
  %160 = load ptr, ptr %32, align 8
  %161 = call i64 @strlen(ptr noundef %160) #14
  store ptr %158, ptr %12, align 8
  store ptr %159, ptr %13, align 8
  store i64 %161, ptr %14, align 8
  store i8 0, ptr %15, align 1
  %162 = load ptr, ptr %12, align 8
  %163 = load i64, ptr %14, align 8
  %164 = load i8, ptr %15, align 1
  %165 = trunc i8 %164 to i1
  store ptr %162, ptr %9, align 8
  store i64 %163, ptr %10, align 8
  %166 = zext i1 %165 to i8
  store i8 %166, ptr %11, align 1
  %167 = load ptr, ptr %9, align 8
  %168 = load ptr, ptr %167, align 8
  %169 = icmp ne ptr %168, null
  %170 = xor i1 %169, true
  br i1 %170, label %171, label %172

171:                                              ; preds = %156
  br label %185

172:                                              ; preds = %156
  %173 = load ptr, ptr %9, align 8
  %174 = load ptr, ptr %173, align 8
  %175 = getelementptr inbounds %struct._zend_string, ptr %174, i32 0, i32 2
  %176 = load i64, ptr %175, align 8
  %177 = load i64, ptr %10, align 8
  %178 = add i64 %177, %176
  store i64 %178, ptr %10, align 8
  %179 = load i64, ptr %10, align 8
  %180 = load ptr, ptr %9, align 8
  %181 = getelementptr inbounds %struct.smart_str, ptr %180, i32 0, i32 1
  %182 = load i64, ptr %181, align 8
  %183 = icmp uge i64 %179, %182
  br i1 %183, label %184, label %195

184:                                              ; preds = %172
  br label %185

185:                                              ; preds = %184, %171
  %186 = load i8, ptr %11, align 1
  %187 = trunc i8 %186 to i1
  br i1 %187, label %188, label %191

188:                                              ; preds = %185
  %189 = load ptr, ptr %9, align 8
  %190 = load i64, ptr %10, align 8
  call void @smart_str_realloc(ptr noundef %189, i64 noundef %190) #10
  br label %194

191:                                              ; preds = %185
  %192 = load ptr, ptr %9, align 8
  %193 = load i64, ptr %10, align 8
  call void @smart_str_erealloc(ptr noundef %192, i64 noundef %193) #10
  br label %194

194:                                              ; preds = %191, %188
  br label %195

195:                                              ; preds = %194, %172
  %196 = load i64, ptr %10, align 8
  store i64 %196, ptr %16, align 8
  %197 = load ptr, ptr %12, align 8
  %198 = load ptr, ptr %197, align 8
  %199 = getelementptr inbounds %struct._zend_string, ptr %198, i32 0, i32 3
  %200 = load ptr, ptr %12, align 8
  %201 = load ptr, ptr %200, align 8
  %202 = getelementptr inbounds %struct._zend_string, ptr %201, i32 0, i32 2
  %203 = load i64, ptr %202, align 8
  %204 = getelementptr inbounds i8, ptr %199, i64 %203
  %205 = load ptr, ptr %13, align 8
  %206 = load i64, ptr %14, align 8
  call void @llvm.memcpy.p0.p0.i64(ptr align 1 %204, ptr align 1 %205, i64 %206, i1 false)
  %207 = load i64, ptr %16, align 8
  %208 = load ptr, ptr %12, align 8
  %209 = load ptr, ptr %208, align 8
  %210 = getelementptr inbounds %struct._zend_string, ptr %209, i32 0, i32 2
  store i64 %207, ptr %210, align 8
  br label %211

211:                                              ; preds = %195, %152
  br label %212

212:                                              ; preds = %211, %136
  br label %213

213:                                              ; preds = %212, %77
  ret void
}