; Function Attrs: nounwind uwtable
define internal fastcc void @zend_ast_export_visibility(ptr noundef %0, i32 noundef %1) unnamed_addr #0 {
  %3 = and i32 %1, 1
  %.not = icmp eq i32 %3, 0
  br i1 %.not, label %18, label %4

4:                                                ; preds = %2
  %5 = load ptr, ptr %0, align 8
  %.not90 = icmp eq ptr %5, null
  br i1 %.not90, label %12, label %6

6:                                                ; preds = %4
  %7 = getelementptr inbounds i8, ptr %5, i64 16
  %8 = load i64, ptr %7, align 8
  %9 = add i64 %8, 7
  %10 = getelementptr inbounds i8, ptr %0, i64 8
  %11 = load i64, ptr %10, align 8
  %.not91 = icmp ult i64 %9, %11
  br i1 %.not91, label %13, label %12

12:                                               ; preds = %4, %6
  %.0 = phi i64 [ 7, %4 ], [ %9, %6 ]
  tail call void @smart_str_erealloc(ptr noundef nonnull %0, i64 noundef %.0) #14
  %.pre = load ptr, ptr %0, align 8
  %.phi.trans.insert = getelementptr inbounds i8, ptr %.pre, i64 16
  %.pre92 = load i64, ptr %.phi.trans.insert, align 8
  br label %13

13:                                               ; preds = %12, %6
  %14 = phi i64 [ %.pre92, %12 ], [ %8, %6 ]
  %15 = phi ptr [ %.pre, %12 ], [ %5, %6 ]
  %.1 = phi i64 [ %.0, %12 ], [ %9, %6 ]
  %16 = getelementptr inbounds i8, ptr %15, i64 24
  %17 = getelementptr inbounds i8, ptr %16, i64 %14
  tail call void @llvm.memcpy.p0.p0.i64(ptr noundef nonnull align 1 dereferenceable(7) %17, ptr noundef nonnull align 1 dereferenceable(7) @.str.166, i64 7, i1 false)
  br label %.sink.split

18:                                               ; preds = %2
  %19 = and i32 %1, 2
  %.not84 = icmp eq i32 %19, 0
  br i1 %.not84, label %34, label %20

20:                                               ; preds = %18
  %21 = load ptr, ptr %0, align 8
  %.not88 = icmp eq ptr %21, null
  br i1 %.not88, label %28, label %22

22:                                               ; preds = %20
  %23 = getelementptr inbounds i8, ptr %21, i64 16
  %24 = load i64, ptr %23, align 8
  %25 = add i64 %24, 10
  %26 = getelementptr inbounds i8, ptr %0, i64 8
  %27 = load i64, ptr %26, align 8
  %.not89 = icmp ult i64 %25, %27
  br i1 %.not89, label %29, label %28

28:                                               ; preds = %20, %22
  %.074 = phi i64 [ 10, %20 ], [ %25, %22 ]
  tail call void @smart_str_erealloc(ptr noundef nonnull %0, i64 noundef %.074) #14
  %.pre93 = load ptr, ptr %0, align 8
  %.phi.trans.insert94 = getelementptr inbounds i8, ptr %.pre93, i64 16
  %.pre95 = load i64, ptr %.phi.trans.insert94, align 8
  br label %29

29:                                               ; preds = %28, %22
  %30 = phi i64 [ %.pre95, %28 ], [ %24, %22 ]
  %31 = phi ptr [ %.pre93, %28 ], [ %21, %22 ]
  %.175 = phi i64 [ %.074, %28 ], [ %25, %22 ]
  %32 = getelementptr inbounds i8, ptr %31, i64 24
  %33 = getelementptr inbounds i8, ptr %32, i64 %30
  tail call void @llvm.memcpy.p0.p0.i64(ptr noundef nonnull align 1 dereferenceable(10) %33, ptr noundef nonnull align 1 dereferenceable(10) @.str.167, i64 10, i1 false)
  br label %.sink.split

34:                                               ; preds = %18
  %35 = and i32 %1, 4
  %.not85 = icmp eq i32 %35, 0
  br i1 %.not85, label %52, label %36

36:                                               ; preds = %34
  %37 = load ptr, ptr %0, align 8
  %.not86 = icmp eq ptr %37, null
  br i1 %.not86, label %44, label %38

38:                                               ; preds = %36
  %39 = getelementptr inbounds i8, ptr %37, i64 16
  %40 = load i64, ptr %39, align 8
  %41 = add i64 %40, 8
  %42 = getelementptr inbounds i8, ptr %0, i64 8
  %43 = load i64, ptr %42, align 8
  %.not87 = icmp ult i64 %41, %43
  br i1 %.not87, label %45, label %44

44:                                               ; preds = %36, %38
  %.076 = phi i64 [ 8, %36 ], [ %41, %38 ]
  tail call void @smart_str_erealloc(ptr noundef nonnull %0, i64 noundef %.076) #14
  %.pre96 = load ptr, ptr %0, align 8
  %.phi.trans.insert97 = getelementptr inbounds i8, ptr %.pre96, i64 16
  %.pre98 = load i64, ptr %.phi.trans.insert97, align 8
  br label %45

45:                                               ; preds = %44, %38
  %46 = phi i64 [ %.pre98, %44 ], [ %40, %38 ]
  %47 = phi ptr [ %.pre96, %44 ], [ %37, %38 ]
  %.177 = phi i64 [ %.076, %44 ], [ %41, %38 ]
  %48 = getelementptr inbounds i8, ptr %47, i64 24
  %49 = getelementptr inbounds i8, ptr %48, i64 %46
  store i64 2334399943808742000, ptr %49, align 1
  br label %.sink.split

.sink.split:                                      ; preds = %13, %45, %29
  %.175.sink = phi i64 [ %.175, %29 ], [ %.177, %45 ], [ %.1, %13 ]
  %50 = load ptr, ptr %0, align 8
  %51 = getelementptr inbounds i8, ptr %50, i64 16
  store i64 %.175.sink, ptr %51, align 8
  br label %52

52:                                               ; preds = %.sink.split, %34
  ret void
}